ccopy_reg
_reconstructor
p1
(crequests.sessions
Session
p2
c__builtin__
object
p3
NtRp4
(dp5
S'cookies'
p6
g1
(crequests.cookies
RequestsCookieJar
p7
g3
NtRp8
(dp9
S'_now'
p10
I1476800899
sS'_policy'
p11
(icookielib
DefaultCookiePolicy
p12
(dp13
S'strict_rfc2965_unverifiable'
p14
I01
sS'strict_ns_domain'
p15
I0
sS'_allowed_domains'
p16
NsS'rfc2109_as_netscape'
p17
NsS'rfc2965'
p18
I00
sS'strict_domain'
p19
I00
sS'_now'
p20
I1476800899
sS'strict_ns_set_path'
p21
I00
sS'strict_ns_unverifiable'
p22
I00
sS'strict_ns_set_initial_dollar'
p23
I00
sS'hide_cookie2'
p24
I00
sS'_blocked_domains'
p25
(tsS'netscape'
p26
I01
sbsS'_cookies'
p27
(dp28
S'.alimama.com'
p29
(dp30
S'/'
(dp31
S'cookie2'
p32
(icookielib
Cookie
p33
(dp34
S'comment'
p35
NsS'domain'
p36
S'.alimama.com'
p37
sS'name'
p38
g32
sS'domain_initial_dot'
p39
I01
sS'expires'
p40
NsS'value'
p41
S'369f10880bc61266e05525f26bb47dfd'
p42
sS'domain_specified'
p43
I01
sS'_rest'
p44
(dp45
S'HttpOnly'
p46
NssS'version'
p47
I0
sS'port_specified'
p48
I00
sS'rfc2109'
p49
I00
sS'discard'
p50
I01
sS'path_specified'
p51
I01
sS'path'
p52
S'/'
sS'port'
p53
NsS'comment_url'
p54
NsS'secure'
p55
I00
sbsS'alimamapw'
p56
(icookielib
Cookie
p57
(dp58
g35
Nsg36
S'.alimama.com'
p59
sg38
S'alimamapw'
p60
sg39
I01
sg40
Nsg41
S'VFJcXA9AXU1dBQRVbAYFBlcEWAACAAQGAgEAVlJUBgUHUVBQCAAEVlICUV1Q'
p61
sg43
I01
sg44
(dp62
S'HttpOnly'
p63
Nssg47
I0
sg48
I00
sg49
I00
sg50
I01
sg51
I01
sg52
S'/'
sg53
Nsg54
Nsg55
I00
sbsS'alimamapwag'
p64
(icookielib
Cookie
p65
(dp66
g35
Nsg36
S'.alimama.com'
p67
sg38
S'alimamapwag'
p68
sg39
I01
sg40
Nsg41
S'TW96aWxsYS81LjAgKFdpbmRvd3MgTlQgMTAuMDsgV09XNjQpIEFwcGxlV2ViS2l0LzUzNy4zNiAoS0hUTUwsIGxpa2UgR2Vja28pIENocm9tZS81MS4wLjI3MDQuNjMgU2FmYXJpLzUzNy4zNg%3D%3D'
p69
sg43
I01
sg44
(dp70
S'HttpOnly'
p71
Nssg47
I0
sg48
I00
sg49
I00
sg50
I01
sg51
I01
sg52
S'/'
sg53
Nsg54
Nsg55
I00
sbsS'cookie32'
p72
(icookielib
Cookie
p73
(dp74
g35
Nsg36
S'.alimama.com'
p75
sg38
S'cookie32'
p76
sg39
I01
sg40
Nsg41
S'88d709f12073de8a454a126cebfd2662'
p77
sg43
I01
sg44
(dp78
sg47
I0
sg48
I00
sg49
I00
sg50
I01
sg51
I01
sg52
S'/'
sg53
Nsg54
Nsg55
I00
sbsS'cookie31'
p79
(icookielib
Cookie
p80
(dp81
g35
Nsg36
S'.alimama.com'
p82
sg38
S'cookie31'
p83
sg39
I01
sg40
Nsg41
S'NDMyNDQzODIsbWVpbGlzaHVvMDAxLDg3NzQ5OTY0NkBxcS5jb20sVEI%3D'
p84
sg43
I01
sg44
(dp85
sg47
I0
sg48
I00
sg49
I00
sg50
I01
sg51
I01
sg52
S'/'
sg53
Nsg54
Nsg55
I00
sbsS'v'
(icookielib
Cookie
p86
(dp87
g35
Nsg36
S'.alimama.com'
p88
sg38
S'v'
sg39
I01
sg40
Nsg41
S'0'
sg43
I01
sg44
(dp89
sg47
I0
sg48
I00
sg49
I00
sg50
I01
sg51
I01
sg52
S'/'
sg53
Nsg54
Nsg55
I00
sbsS'login'
p90
(icookielib
Cookie
p91
(dp92
g35
Nsg36
S'.alimama.com'
p93
sg38
S'login'
p94
sg39
I01
sg40
Nsg41
S'Vq8l%2BKCLz3%2F65A%3D%3D'
p95
sg43
I01
sg44
(dp96
sg47
I0
sg48
I00
sg49
I00
sg50
I01
sg51
I01
sg52
S'/'
sg53
Nsg54
Nsg55
I00
sbsS'_tb_token_'
p97
(icookielib
Cookie
p98
(dp99
g35
Nsg36
S'.alimama.com'
p100
sg38
g97
sg39
I01
sg40
Nsg41
S'iEMfK1DPkzp'
p101
sg43
I01
sg44
(dp102
sg47
I0
sg48
I00
sg49
I00
sg50
I01
sg51
I01
sg52
S'/'
sg53
Nsg54
Nsg55
I00
sbsS't'
(icookielib
Cookie
p103
(dp104
g35
Nsg36
S'.alimama.com'
p105
sg38
S't'
sg39
I01
sg40
I1784277318
sg41
S'b452c087c2281aeac397e50386b071dc'
p106
sg43
I01
sg44
(dp107
sg47
I0
sg48
I00
sg49
I00
sg50
I00
sg51
I01
sg52
S'/'
sg53
Nsg54
Nsg55
I00
sbsssS'.passport.alipay.com'
p108
(dp109
S'/'
(dp110
S'havana_tgc'
p111
(icookielib
Cookie
p112
(dp113
g35
Nsg36
S'.passport.alipay.com'
p114
sg38
S'havana_tgc'
p115
sg39
I01
sg40
Nsg41
S'eyJwYXRpYWxUZ2MiOnsiYWNjSW5mb3MiOnsiMCI6eyJ0Z3RJZCI6IjE3SnJLSFk2cW5aZ1JwcFhCa3d2SjdnIiwiYWNjZXNzVHlwZSI6NCwibWVtYmVySWQiOjYzMDYwNzA2fSwiMyI6eyJ0Z3RJZCI6IjE3SnJLSFk2cW5aZ1JwcFhCa3d2SjdnIiwiYWNjZXNzVHlwZSI6NCwibWVtYmVySWQiOjYzMDYwNzA2fX19fQ'
p116
sg43
I01
sg44
(dp117
S'HttpOnly'
p118
Nssg47
I0
sg48
I00
sg49
I00
sg50
I01
sg51
I01
sg52
S'/'
sg53
Nsg54
Nsg55
I01
sbsssS'.taobao.com'
p119
(dp120
S'/'
(dp121
S'cookie1'
p122
(icookielib
Cookie
p123
(dp124
g35
Nsg36
S'.taobao.com'
p125
sg38
S'cookie1'
p126
sg39
I01
sg40
Nsg41
S'AHsuDWeIkJoPybu6rY0F9iIUANNxd3neAm61RujyVAY%3D'
p127
sg43
I01
sg44
(dp128
S'HttpOnly'
p129
Nssg47
I0
sg48
I00
sg49
I00
sg50
I01
sg51
I01
sg52
S'/'
sg53
Nsg54
Nsg55
I00
sbsS'skt'
p130
(icookielib
Cookie
p131
(dp132
g35
Nsg36
S'.taobao.com'
p133
sg38
S'skt'
p134
sg39
I01
sg40
Nsg41
S'2b0eee52cce70527'
p135
sg43
I01
sg44
(dp136
S'HttpOnly'
p137
Nssg47
I0
sg48
I00
sg49
I00
sg50
I01
sg51
I01
sg52
S'/'
sg53
Nsg54
Nsg55
I00
sbsS'cookie2'
p138
(icookielib
Cookie
p139
(dp140
g35
Nsg36
S'.taobao.com'
p141
sg38
S'cookie2'
p142
sg39
I01
sg40
Nsg41
S'14c7fb7a0bca3358313a713034efe052'
p143
sg43
I01
sg44
(dp144
S'HttpOnly'
p145
Nssg47
I0
sg48
I00
sg49
I00
sg50
I01
sg51
I01
sg52
S'/'
sg53
Nsg54
Nsg55
I00
sbsS'uc3'
p146
(icookielib
Cookie
p147
(dp148
g35
Nsg36
S'.taobao.com'
p149
sg38
S'uc3'
p150
sg39
I01
sg40
I1479391418
sg41
S'nk2=FOx2JPxWOFV9RA%3D%3D&id2=VWww4fSFjRs%3D&vt3=F8dAS181cHajiOfE9PM%3D&lg2=VFC%2FuZ9ayeYq2g%3D%3D'
p151
sg43
I01
sg44
(dp152
S'HttpOnly'
p153
Nssg47
I0
sg48
I00
sg49
I00
sg50
I00
sg51
I01
sg52
S'/'
sg53
Nsg54
Nsg55
I00
sbsS'publishItemObj'
p154
(icookielib
Cookie
p155
(dp156
g35
Nsg36
S'.taobao.com'
p157
sg38
S'publishItemObj'
p158
sg39
I01
sg40
Nsg41
S'Ng%3D%3D'
p159
sg43
I01
sg44
(dp160
sg47
I0
sg48
I00
sg49
I00
sg50
I01
sg51
I01
sg52
S'/'
sg53
Nsg54
Nsg55
I00
sbsS'uc1'
p161
(icookielib
Cookie
p162
(dp163
g35
Nsg36
S'.taobao.com'
p164
sg38
S'uc1'
p165
sg39
I01
sg40
Nsg41
S'cookie14=UoWwIqhjqveqDg%3D%3D&lng=zh_CN&cookie16=W5iHLLyFPlMGbLDwA%2BdvAGZqLg%3D%3D&existShop=false&cookie21=V32FPkk%2FgPzW&tag=4&cookie15=U%2BGCWk%2F75gdr5Q%3D%3D&pas=0'
p166
sg43
I01
sg44
(dp167
sg47
I0
sg48
I00
sg49
I00
sg50
I01
sg51
I01
sg52
S'/'
sg53
Nsg54
Nsg55
I00
sbsS'thw'
p168
(icookielib
Cookie
p169
(dp170
g35
Nsg36
S'.taobao.com'
p171
sg38
S'thw'
p172
sg39
I01
sg40
I1508226918
sg41
S'cn'
p173
sg43
I01
sg44
(dp174
sg47
I0
sg48
I00
sg49
I00
sg50
I00
sg51
I01
sg52
S'/'
sg53
Nsg54
Nsg55
I00
sbsS'sg'
p175
(icookielib
Cookie
p176
(dp177
g35
Nsg36
S'.taobao.com'
p178
sg38
S'sg'
p179
sg39
I01
sg40
Nsg41
S'16f'
p180
sg43
I01
sg44
(dp181
sg47
I0
sg48
I00
sg49
I00
sg50
I01
sg51
I01
sg52
S'/'
sg53
Nsg54
Nsg55
I00
sbsS'cookie17'
p182
(icookielib
Cookie
p183
(dp184
g35
Nsg36
S'.taobao.com'
p185
sg38
S'cookie17'
p186
sg39
I01
sg40
Nsg41
S'VWww4fSFjRs%3D'
p187
sg43
I01
sg44
(dp188
S'HttpOnly'
p189
Nssg47
I0
sg48
I00
sg49
I00
sg50
I01
sg51
I01
sg52
S'/'
sg53
Nsg54
Nsg55
I00
sbsS'_nk_'
p190
(icookielib
Cookie
p191
(dp192
g35
Nsg36
S'.taobao.com'
p193
sg38
S'_nk_'
p194
sg39
I01
sg40
Nsg41
S'wuzeyue001'
p195
sg43
I01
sg44
(dp196
sg47
I0
sg48
I00
sg49
I00
sg50
I01
sg51
I01
sg52
S'/'
sg53
Nsg54
Nsg55
I00
sbsS'_cc_'
p197
(icookielib
Cookie
p198
(dp199
g35
Nsg36
S'.taobao.com'
p200
sg38
S'_cc_'
p201
sg39
I01
sg40
I1508335418
sg41
S'Vq8l%2BKCLiw%3D%3D'
p202
sg43
I01
sg44
(dp203
sg47
I0
sg48
I00
sg49
I00
sg50
I00
sg51
I01
sg52
S'/'
sg53
Nsg54
Nsg55
I00
sbsS'mt'
p204
(icookielib
Cookie
p205
(dp206
g35
Nsg36
S'.taobao.com'
p207
sg38
S'mt'
p208
sg39
I01
sg40
I1477404218
sg41
S'np='
p209
sg43
I01
sg44
(dp210
sg47
I0
sg48
I00
sg49
I00
sg50
I00
sg51
I01
sg52
S'/'
sg53
Nsg54
Nsg55
I00
sbsS'unb'
p211
(icookielib
Cookie
p212
(dp213
g35
Nsg36
S'.taobao.com'
p214
sg38
S'unb'
p215
sg39
I01
sg40
Nsg41
S'63060706'
p216
sg43
I01
sg44
(dp217
S'HttpOnly'
p218
Nssg47
I0
sg48
I00
sg49
I00
sg50
I01
sg51
I01
sg52
S'/'
sg53
Nsg54
Nsg55
I00
sbsS'_l_g_'
p219
(icookielib
Cookie
p220
(dp221
g35
Nsg36
S'.taobao.com'
p222
sg38
S'_l_g_'
p223
sg39
I01
sg40
Nsg41
S'Ug%3D%3D'
p224
sg43
I01
sg44
(dp225
sg47
I0
sg48
I00
sg49
I00
sg50
I01
sg51
I01
sg52
S'/'
sg53
Nsg54
Nsg55
I00
sbsS'_tb_token_'
p226
(icookielib
Cookie
p227
(dp228
g35
Nsg36
S'.taobao.com'
p229
sg38
g226
sg39
I01
sg40
Nsg41
S'e3eb83a58b1ee'
p230
sg43
I01
sg44
(dp231
sg47
I0
sg48
I00
sg49
I00
sg50
I01
sg51
I01
sg52
S'/'
sg53
Nsg54
Nsg55
I00
sbsS't'
(icookielib
Cookie
p232
(dp233
g35
Nsg36
S'.taobao.com'
p234
sg38
S't'
sg39
I01
sg40
I1484575418
sg41
S'747a1bcd41711d9017eac6b8b5333f24'
p235
sg43
I01
sg44
(dp236
sg47
I0
sg48
I00
sg49
I00
sg50
I00
sg51
I01
sg52
S'/'
sg53
Nsg54
Nsg55
I00
sbsS'v'
(icookielib
Cookie
p237
(dp238
g35
Nsg36
g119
sg38
S'v'
sg39
I01
sg40
Nsg41
S'0'
sg43
I01
sg44
(dp239
sg47
I0
sg48
I00
sg49
I00
sg50
I01
sg51
I01
sg52
S'/'
sg53
Nsg54
Nsg55
I00
sbsS'tg'
p240
(icookielib
Cookie
p241
(dp242
g35
Nsg36
S'.taobao.com'
p243
sg38
S'tg'
p244
sg39
I01
sg40
I1530799418
sg41
S'0'
sg43
I01
sg44
(dp245
sg47
I0
sg48
I00
sg49
I00
sg50
I00
sg51
I01
sg52
S'/'
sg53
Nsg54
Nsg55
I00
sbsS'existShop'
p246
(icookielib
Cookie
p247
(dp248
g35
Nsg36
S'.taobao.com'
p249
sg38
S'existShop'
p250
sg39
I01
sg40
Nsg41
S'MTQ3Njc5OTQxOA%3D%3D'
p251
sg43
I01
sg44
(dp252
sg47
I0
sg48
I00
sg49
I00
sg50
I01
sg51
I01
sg52
S'/'
sg53
Nsg54
Nsg55
I00
sbsS'tracknick'
p253
(icookielib
Cookie
p254
(dp255
g35
Nsg36
S'.taobao.com'
p256
sg38
S'tracknick'
p257
sg39
I01
sg40
I1508335418
sg41
S'wuzeyue001'
p258
sg43
I01
sg44
(dp259
sg47
I0
sg48
I00
sg49
I00
sg50
I00
sg51
I01
sg52
S'/'
sg53
Nsg54
Nsg55
I00
sbsS'lgc'
p260
(icookielib
Cookie
p261
(dp262
g35
Nsg36
S'.taobao.com'
p263
sg38
S'lgc'
p264
sg39
I01
sg40
I1479391418
sg41
S'wuzeyue001'
p265
sg43
I01
sg44
(dp266
sg47
I0
sg48
I00
sg49
I00
sg50
I00
sg51
I01
sg52
S'/'
sg53
Nsg54
Nsg55
I00
sbsssS'.login.taobao.com'
p267
(dp268
S'/'
(dp269
S'lid'
p270
(icookielib
Cookie
p271
(dp272
g35
Nsg36
S'.login.taobao.com'
p273
sg38
S'lid'
p274
sg39
I00
sg40
I1508335418
sg41
S'wuzeyue001'
p275
sg43
I01
sg44
(dp276
sg47
I0
sg48
I00
sg49
I00
sg50
I00
sg51
I01
sg52
S'/'
sg53
Nsg54
Nsg55
I00
sbsS'lc'
p277
(icookielib
Cookie
p278
(dp279
g35
Nsg36
S'.login.taobao.com'
p280
sg38
S'lc'
p281
sg39
I00
sg40
I1479391418
sg41
S'Vy7rRD4idsRtO%2B46Nair'
p282
sg43
I01
sg44
(dp283
S'HttpOnly'
p284
Nssg47
I0
sg48
I00
sg49
I00
sg50
I00
sg51
I01
sg52
S'/'
sg53
Nsg54
Nsg55
I00
sbssssbsS'stream'
p285
I00
sS'hooks'
p286
(dp287
S'response'
p288
(lp289
ssS'redirect_cache'
p290
(dp291
sS'auth'
p292
NsS'trust_env'
p293
I01
sS'headers'
p294
g1
(crequests.structures
CaseInsensitiveDict
p295
g3
NtRp296
(dp297
S'_store'
p298
crequests.packages.urllib3.packages.ordered_dict
OrderedDict
p299
((lp300
(lp301
S'connection'
p302
a(S'Connection'
S'keep-alive'
tp303
aa(lp304
S'accept-encoding'
p305
a(S'Accept-Encoding'
S'gzip, deflate'
tp306
aa(lp307
S'accept'
p308
a(S'Accept'
S'*/*'
tp309
aa(lp310
S'user-agent'
p311
a(S'User-Agent'
S'Mozilla/5.0 (Windows NT 10.0; WOW64) AppleWebKit/537.36 (KHTML, like Gecko) Chrome/51.0.2704.63 Safari/537.36'
tp312
aatRp313
sbsS'cert'
p314
NsS'params'
p315
(dp316
sS'prefetch'
p317
NsS'verify'
p318
I01
sS'proxies'
p319
(dp320
sS'adapters'
p321
g299
((lp322
(lp323
S'https://'
p324
ag1
(crequests.adapters
HTTPAdapter
p325
g3
NtRp326
(dp327
S'_pool_block'
p328
I00
sS'_pool_maxsize'
p329
I10
sS'max_retries'
p330
g1
(crequests.packages.urllib3.util.retry
Retry
p331
g3
NtRp332
(dp333
S'redirect'
p334
NsS'_observed_errors'
p335
I0
sS'read'
p336
I00
sS'backoff_factor'
p337
I0
sS'raise_on_status'
p338
I01
sS'connect'
p339
NsS'status_forcelist'
p340
c__builtin__
set
p341
((ltRp342
sS'total'
p343
I0
sS'raise_on_redirect'
p344
I01
sS'method_whitelist'
p345
c__builtin__
frozenset
p346
((lp347
S'HEAD'
p348
aS'TRACE'
p349
aS'GET'
p350
aS'PUT'
p351
aS'OPTIONS'
p352
aS'DELETE'
p353
atRp354
sbsS'config'
p355
(dp356
sS'_pool_connections'
p357
I10
sbaa(lp358
S'http://'
p359
ag1
(g325
g3
NtRp360
(dp361
g328
I00
sg329
I10
sg330
g1
(g331
g3
NtRp362
(dp363
g334
Nsg335
I0
sg336
I00
sg337
I0
sg338
I01
sg339
Nsg340
g341
((ltRp364
sg343
I0
sg344
I01
sg345
g354
sbsg355
(dp365
sg357
I10
sbaatRp366
sS'max_redirects'
p367
I30
sb.